target datalayout = "e-m:e-p270:32:32-p271:32:32-p272:64:64-i64:64-i128:128-f80:128-n8:16:32:64-S128"
target triple = "x86_64-pc-linux-gnu"

%"class.metaspace::VirtualSpaceNode" = type { ptr, %class.ReservedSpace, i8, ptr, i64, i64, %"class.metaspace::CommitMask", %"class.metaspace::RootChunkAreaLUT", ptr, ptr, ptr }
%class.ReservedSpace = type <{ ptr, i64, i64, i64, i64, i8, [3 x i8], i32, i8, [7 x i8] }>
%"class.metaspace::CommitMask" = type { %class.CHeapBitMap.base, ptr, i64, i64 }
%class.CHeapBitMap.base = type <{ %class.GrowableBitMap, i8 }>
%class.GrowableBitMap = type { %class.BitMap }
%class.BitMap = type { ptr, i64 }
%"class.metaspace::RootChunkAreaLUT" = type { ptr, i32, ptr }

@.str.17 = private unnamed_addr constant [16 x i8] c"base 0x%016lx: \00", align 1
@.str.18 = private unnamed_addr constant [10 x i8] c"reserved=\00", align 1
@.str.19 = private unnamed_addr constant [13 x i8] c", committed=\00", align 1
@.str.20 = private unnamed_addr constant [8 x i8] c", used=\00", align 1

; Function Attrs: mustprogress nounwind uwtable
define linkonce_odr hidden noundef i64 @_ZNK9metaspace10CommitMask18get_committed_sizeEv(ptr noundef nonnull align 8 dereferenceable(48) %0) #1 comdat align 2 {
  %2 = alloca ptr, align 8
  store ptr %0, ptr %2, align 8
  %3 = load ptr, ptr %2, align 8
  %4 = call noundef i64 @_ZNK6BitMap14count_one_bitsEv(ptr noundef nonnull align 8 dereferenceable(16) %3)
  %5 = getelementptr inbounds %"class.metaspace::CommitMask", ptr %3, i32 0, i32 3
  %6 = load i64, ptr %5, align 8
  %7 = mul i64 %4, %6
  ret i64 %7
}

; Function Attrs: mustprogress nounwind uwtable
define linkonce_odr hidden noundef i64 @_ZNK9metaspace16VirtualSpaceNode10used_wordsEv(ptr noundef nonnull align 8 dereferenceable(192) %0) #1 comdat align 2 {
  %2 = alloca ptr, align 8
  store ptr %0, ptr %2, align 8
  %3 = load ptr, ptr %2, align 8
  %4 = getelementptr inbounds %"class.metaspace::VirtualSpaceNode", ptr %3, i32 0, i32 5
  %5 = load i64, ptr %4, align 8
  ret i64 %5
}

; Function Attrs: mustprogress nounwind uwtable
define hidden noundef i64 @_ZNK9metaspace16VirtualSpaceNode15committed_wordsEv(ptr noundef nonnull align 8 dereferenceable(192) %0) #1 align 2 {
  %2 = alloca ptr, align 8
  store ptr %0, ptr %2, align 8
  %3 = load ptr, ptr %2, align 8
  %4 = getelementptr inbounds %"class.metaspace::VirtualSpaceNode", ptr %3, i32 0, i32 6
  %5 = call noundef i64 @_ZNK9metaspace10CommitMask18get_committed_sizeEv(ptr noundef nonnull align 8 dereferenceable(48) %4)
  ret i64 %5
}

; Function Attrs: mustprogress nounwind uwtable
define linkonce_odr hidden noundef i64 @_ZNK9metaspace16VirtualSpaceNode9word_sizeEv(ptr noundef nonnull align 8 dereferenceable(192) %0) #1 comdat align 2 {
  %2 = alloca ptr, align 8
  store ptr %0, ptr %2, align 8
  %3 = load ptr, ptr %2, align 8
  %4 = getelementptr inbounds %"class.metaspace::VirtualSpaceNode", ptr %3, i32 0, i32 4
  %5 = load i64, ptr %4, align 8
  ret i64 %5
}

; Function Attrs: mustprogress nounwind uwtable
define linkonce_odr hidden noundef i64 @_Z3p2iPVKv(ptr noundef %0) #1 comdat {
  %2 = alloca ptr, align 8
  store ptr %0, ptr %2, align 8
  %3 = load ptr, ptr %2, align 8
  %4 = ptrtoint ptr %3 to i64
  ret i64 %4
}

; Function Attrs: mustprogress nounwind uwtable
define linkonce_odr hidden noundef ptr @_ZNK9metaspace16VirtualSpaceNode4baseEv(ptr noundef nonnull align 8 dereferenceable(192) %0) #1 comdat align 2 {
  %2 = alloca ptr, align 8
  store ptr %0, ptr %2, align 8
  %3 = load ptr, ptr %2, align 8
  %4 = getelementptr inbounds %"class.metaspace::VirtualSpaceNode", ptr %3, i32 0, i32 3
  %5 = load ptr, ptr %4, align 8
  ret ptr %5
}

; Function Attrs: mustprogress nounwind uwtable
define hidden void @_ZNK9metaspace16VirtualSpaceNode8print_onEP12outputStream(ptr noundef nonnull align 8 dereferenceable(192) %0, ptr noundef %1) #1 align 2 {
  %3 = alloca ptr, align 8
  %4 = alloca ptr, align 8
  %5 = alloca i64, align 8
  store ptr %0, ptr %3, align 8
  store ptr %1, ptr %4, align 8
  %6 = load ptr, ptr %3, align 8
  store i64 1024, ptr %5, align 8
  %7 = load ptr, ptr %4, align 8
  %8 = call noundef ptr @_ZNK9metaspace16VirtualSpaceNode4baseEv(ptr noundef nonnull align 8 dereferenceable(192) %6)
  %9 = call noundef i64 @_Z3p2iPVKv(ptr noundef %8)
  call void (ptr, ptr, ...) @_ZN12outputStream5printEPKcz(ptr noundef nonnull align 8 dereferenceable(56) %7, ptr noundef @.str.17, i64 noundef %9)
  %10 = load ptr, ptr %4, align 8
  call void (ptr, ptr, ...) @_ZN12outputStream5printEPKcz(ptr noundef nonnull align 8 dereferenceable(56) %10, ptr noundef @.str.18)
  %11 = load ptr, ptr %4, align 8
  %12 = call noundef i64 @_ZNK9metaspace16VirtualSpaceNode9word_sizeEv(ptr noundef nonnull align 8 dereferenceable(192) %6)
  %13 = load i64, ptr %5, align 8
  call void @_ZN9metaspace18print_scaled_wordsEP12outputStreammmi(ptr noundef %11, i64 noundef %12, i64 noundef %13, i32 noundef -1)
  %14 = load ptr, ptr %4, align 8
  call void (ptr, ptr, ...) @_ZN12outputStream5printEPKcz(ptr noundef nonnull align 8 dereferenceable(56) %14, ptr noundef @.str.19)
  %15 = load ptr, ptr %4, align 8
  %16 = call noundef i64 @_ZNK9metaspace16VirtualSpaceNode15committed_wordsEv(ptr noundef nonnull align 8 dereferenceable(192) %6)
  %17 = call noundef i64 @_ZNK9metaspace16VirtualSpaceNode9word_sizeEv(ptr noundef nonnull align 8 dereferenceable(192) %6)
  %18 = load i64, ptr %5, align 8
  call void @_ZN9metaspace33print_scaled_words_and_percentageEP12outputStreammmmi(ptr noundef %15, i64 noundef %16, i64 noundef %17, i64 noundef %18, i32 noundef -1)
  %19 = load ptr, ptr %4, align 8
  call void (ptr, ptr, ...) @_ZN12outputStream5printEPKcz(ptr noundef nonnull align 8 dereferenceable(56) %19, ptr noundef @.str.20)
  %20 = load ptr, ptr %4, align 8
  %21 = call noundef i64 @_ZNK9metaspace16VirtualSpaceNode10used_wordsEv(ptr noundef nonnull align 8 dereferenceable(192) %6)
  %22 = call noundef i64 @_ZNK9metaspace16VirtualSpaceNode9word_sizeEv(ptr noundef nonnull align 8 dereferenceable(192) %6)
  %23 = load i64, ptr %5, align 8
  call void @_ZN9metaspace33print_scaled_words_and_percentageEP12outputStreammmmi(ptr noundef %20, i64 noundef %21, i64 noundef %22, i64 noundef %23, i32 noundef -1)
  %24 = load ptr, ptr %4, align 8
  call void @_ZN12outputStream2crEv(ptr noundef nonnull align 8 dereferenceable(56) %24)
  %25 = getelementptr inbounds %"class.metaspace::VirtualSpaceNode", ptr %6, i32 0, i32 7
  %26 = load ptr, ptr %4, align 8
  call void @_ZNK9metaspace16RootChunkAreaLUT8print_onEP12outputStream(ptr noundef nonnull align 8 dereferenceable(24) %25, ptr noundef %26)
  %27 = getelementptr inbounds %"class.metaspace::VirtualSpaceNode", ptr %6, i32 0, i32 6
  %28 = load ptr, ptr %4, align 8
  call void @_ZNK9metaspace10CommitMask8print_onEP12outputStream(ptr noundef nonnull align 8 dereferenceable(48) %27, ptr noundef %28)
  ret void
}