; Function Attrs: mustprogress nounwind uwtable
define hidden void @_ZNK9metaspace16VirtualSpaceNode8print_onEP12outputStream(ptr noundef nonnull align 8 dereferenceable(192) %0, ptr noundef nonnull %1) local_unnamed_addr #0 align 2 {
  %3 = getelementptr inbounds i8, ptr %0, i64 72
  %4 = load ptr, ptr %3, align 8
  %5 = ptrtoint ptr %4 to i64
  tail call void (ptr, ptr, ...) @_ZN12outputStream5printEPKcz(ptr noundef nonnull align 8 dereferenceable(56) %1, ptr noundef nonnull @.str.17, i64 noundef %5) #8
  tail call void (ptr, ptr, ...) @_ZN12outputStream5printEPKcz(ptr noundef nonnull align 8 dereferenceable(56) %1, ptr noundef nonnull @.str.18) #8
  %6 = getelementptr inbounds i8, ptr %0, i64 80
  %7 = load i64, ptr %6, align 8
  tail call void @_ZN9metaspace18print_scaled_wordsEP12outputStreammmi(ptr noundef nonnull %1, i64 noundef %7, i64 noundef 1024, i32 noundef -1) #8
  tail call void (ptr, ptr, ...) @_ZN12outputStream5printEPKcz(ptr noundef nonnull align 8 dereferenceable(56) %1, ptr noundef nonnull @.str.19) #8
  %8 = getelementptr inbounds i8, ptr %0, i64 96
  %9 = tail call noundef i64 @_ZNK6BitMap14count_one_bitsEv(ptr noundef nonnull align 8 dereferenceable(16) %8) #8
  %10 = getelementptr inbounds i8, ptr %0, i64 136
  %11 = load i64, ptr %10, align 8
  %12 = mul i64 %11, %9
  %13 = load i64, ptr %6, align 8
  tail call void @_ZN9metaspace33print_scaled_words_and_percentageEP12outputStreammmmi(ptr noundef nonnull %1, i64 noundef %12, i64 noundef %13, i64 noundef 1024, i32 noundef -1) #8
  tail call void (ptr, ptr, ...) @_ZN12outputStream5printEPKcz(ptr noundef nonnull align 8 dereferenceable(56) %1, ptr noundef nonnull @.str.20) #8
  %14 = getelementptr inbounds i8, ptr %0, i64 88
  %15 = load i64, ptr %14, align 8
  %16 = load i64, ptr %6, align 8
  tail call void @_ZN9metaspace33print_scaled_words_and_percentageEP12outputStreammmmi(ptr noundef nonnull %1, i64 noundef %15, i64 noundef %16, i64 noundef 1024, i32 noundef -1) #8
  tail call void @_ZN12outputStream2crEv(ptr noundef nonnull align 8 dereferenceable(56) %1) #8
  %17 = getelementptr inbounds i8, ptr %0, i64 144
  tail call void @_ZNK9metaspace16RootChunkAreaLUT8print_onEP12outputStream(ptr noundef nonnull align 8 dereferenceable(24) %17, ptr noundef nonnull %1) #8
  tail call void @_ZNK9metaspace10CommitMask8print_onEP12outputStream(ptr noundef nonnull align 8 dereferenceable(48) %8, ptr noundef nonnull %1) #8
  ret void
}